target datalayout = "e-m:e-p270:32:32-p271:32:32-p272:64:64-i64:64-i128:128-f80:128-n8:16:32:64-S128"
target triple = "x86_64-pc-linux-gnu"

%struct.CORD_Pos = type { i64, i32, ptr, i64, i64, [49 x %struct.CORD_pe], [8 x i8] }
%struct.CORD_pe = type { ptr, i64 }

; Function Attrs: nounwind uwtable
define void @CORD_next(ptr noundef %0) #0 {
  %2 = alloca ptr, align 8
  store ptr %0, ptr %2, align 8, !tbaa !53
  %3 = load ptr, ptr %2, align 8, !tbaa !53
  %4 = getelementptr inbounds %struct.CORD_Pos, ptr %3, i64 0
  %5 = getelementptr inbounds nuw %struct.CORD_Pos, ptr %4, i32 0, i32 0
  %6 = load i64, ptr %5, align 8, !tbaa !61
  %7 = add i64 %6, 1
  %8 = load ptr, ptr %2, align 8, !tbaa !53
  %9 = getelementptr inbounds %struct.CORD_Pos, ptr %8, i64 0
  %10 = getelementptr inbounds nuw %struct.CORD_Pos, ptr %9, i32 0, i32 4
  %11 = load i64, ptr %10, align 8, !tbaa !66
  %12 = icmp ult i64 %7, %11
  br i1 %12, label %13, label %19

13:                                               ; preds = %1
  %14 = load ptr, ptr %2, align 8, !tbaa !53
  %15 = getelementptr inbounds %struct.CORD_Pos, ptr %14, i64 0
  %16 = getelementptr inbounds nuw %struct.CORD_Pos, ptr %15, i32 0, i32 0
  %17 = load i64, ptr %16, align 8, !tbaa !61
  %18 = add i64 %17, 1
  store i64 %18, ptr %16, align 8, !tbaa !61
  br label %21

19:                                               ; preds = %1
  %20 = load ptr, ptr %2, align 8, !tbaa !53
  call void @CORD__next(ptr noundef %20)
  br label %21

21:                                               ; preds = %19, %13
  ret void
}