; Function Attrs: nounwind uwtable
define void @CORD_next(ptr noundef %0) local_unnamed_addr #2 {
  %2 = load i64, ptr %0, align 8, !tbaa !52
  %3 = add i64 %2, 1
  %4 = getelementptr inbounds nuw i8, ptr %0, i64 32
  %5 = load i64, ptr %4, align 8, !tbaa !57
  %6 = icmp ult i64 %3, %5
  br i1 %6, label %7, label %8

7:                                                ; preds = %1
  store i64 %3, ptr %0, align 8, !tbaa !52
  br label %9

8:                                                ; preds = %1
  tail call void @CORD__next(ptr noundef nonnull %0)
  br label %9

9:                                                ; preds = %8, %7
  ret void
}